target datalayout = "e-m:e-p270:32:32-p271:32:32-p272:64:64-i64:64-i128:128-f80:128-n8:16:32:64-S128"
target triple = "x86_64-pc-linux-gnu"

@.str.50 = private unnamed_addr constant [32 x i8] c" \0D\0A\09/:#?!@{}[]\\$'\22^`*<>=;,+&()%\00", align 1

; Function Attrs: nounwind uwtable
define internal i32 @hostname_check(ptr noundef %0, ptr noundef %1, i64 noundef %2) #0 {
  %4 = alloca i32, align 4
  %5 = alloca ptr, align 8
  %6 = alloca ptr, align 8
  %7 = alloca i64, align 8
  %8 = alloca i64, align 8
  store ptr %0, ptr %5, align 8
  store ptr %1, ptr %6, align 8
  store i64 %2, ptr %7, align 8
  br label %9

9:                                                ; preds = %3
  br label %10

10:                                               ; preds = %9
  %11 = load i64, ptr %7, align 8
  %12 = icmp ne i64 %11, 0
  br i1 %12, label %14, label %13

13:                                               ; preds = %10
  store i32 14, ptr %4, align 4
  br label %35

14:                                               ; preds = %10
  %15 = load ptr, ptr %6, align 8
  %16 = getelementptr inbounds i8, ptr %15, i64 0
  %17 = load i8, ptr %16, align 1
  %18 = sext i8 %17 to i32
  %19 = icmp eq i32 %18, 91
  br i1 %19, label %20, label %25

20:                                               ; preds = %14
  %21 = load ptr, ptr %5, align 8
  %22 = load ptr, ptr %6, align 8
  %23 = load i64, ptr %7, align 8
  %24 = call i32 @ipv6_parse(ptr noundef %21, ptr noundef %22, i64 noundef %23)
  store i32 %24, ptr %4, align 4
  br label %35

25:                                               ; preds = %14
  %26 = load ptr, ptr %6, align 8
  %27 = call i64 @strcspn(ptr noundef %26, ptr noundef @.str.50) #7
  store i64 %27, ptr %8, align 8
  %28 = load i64, ptr %7, align 8
  %29 = load i64, ptr %8, align 8
  %30 = icmp ne i64 %28, %29
  br i1 %30, label %31, label %32

31:                                               ; preds = %25
  store i32 21, ptr %4, align 4
  br label %35

32:                                               ; preds = %25
  br label %33

33:                                               ; preds = %32
  br label %34

34:                                               ; preds = %33
  store i32 0, ptr %4, align 4
  br label %35

35:                                               ; preds = %34, %31, %20, %13
  %36 = load i32, ptr %4, align 4
  ret i32 %36
}