; Function Attrs: nounwind uwtable
define internal fastcc range(i32 0, 23) i32 @hostname_check(ptr noundef writeonly captures(none) %0, ptr noundef %1, i64 noundef %2) unnamed_addr #0 {
  %.not = icmp eq i64 %2, 0
  br i1 %.not, label %11, label %4

4:                                                ; preds = %3
  %5 = load i8, ptr %1, align 1
  %6 = icmp eq i8 %5, 91
  br i1 %6, label %7, label %9

7:                                                ; preds = %4
  %8 = tail call fastcc i32 @ipv6_parse(ptr noundef %0, ptr noundef nonnull %1, i64 noundef %2)
  br label %11

9:                                                ; preds = %4
  %10 = tail call i64 @strcspn(ptr noundef nonnull %1, ptr noundef nonnull @.str.50) #11
  %.not9 = icmp eq i64 %2, %10
  %. = select i1 %.not9, i32 0, i32 21
  br label %11

11:                                               ; preds = %9, %3, %7
  %.0 = phi i32 [ %8, %7 ], [ 14, %3 ], [ %., %9 ]
  ret i32 %.0
}